; Function Attrs: nounwind uwtable
define internal i32 @T1_Size_Init(ptr nocapture noundef readonly %0) #2 {
  %2 = alloca ptr, align 8
  %.val = load ptr, ptr %0, align 8
  %3 = getelementptr i8, ptr %.val, i64 176
  %.val.val = load ptr, ptr %3, align 8
  %4 = getelementptr i8, ptr %.val, i64 880
  %.val.val12 = load ptr, ptr %4, align 8
  %5 = getelementptr i8, ptr %.val.val, i64 8
  %.val.val.val = load ptr, ptr %5, align 8
  %6 = tail call ptr @FT_Get_Module(ptr noundef %.val.val.val, ptr noundef nonnull @.str.14) #16
  %7 = icmp ne ptr %6, null
  %8 = icmp ne ptr %.val.val12, null
  %or.cond.i = select i1 %7, i1 %8, i1 false
  br i1 %or.cond.i, label %9, label %T1_Size_Get_Globals_Funcs.exit.thread

9:                                                ; preds = %1
  %10 = load ptr, ptr %.val.val12, align 8
  %.not.i = icmp eq ptr %10, null
  br i1 %.not.i, label %T1_Size_Get_Globals_Funcs.exit.thread, label %T1_Size_Get_Globals_Funcs.exit

T1_Size_Get_Globals_Funcs.exit:                   ; preds = %9
  %11 = tail call ptr %10(ptr noundef nonnull %6) #16
  %.not = icmp eq ptr %11, null
  br i1 %.not, label %T1_Size_Get_Globals_Funcs.exit.thread, label %12

12:                                               ; preds = %T1_Size_Get_Globals_Funcs.exit
  %13 = load ptr, ptr %0, align 8
  %14 = load ptr, ptr %11, align 8
  %15 = getelementptr inbounds i8, ptr %13, i64 184
  %16 = load ptr, ptr %15, align 8
  %17 = getelementptr inbounds i8, ptr %13, i64 312
  %18 = call i32 %14(ptr noundef %16, ptr noundef nonnull %17, ptr noundef nonnull %2) #16
  %.not11 = icmp eq i32 %18, 0
  br i1 %.not11, label %19, label %T1_Size_Get_Globals_Funcs.exit.thread

19:                                               ; preds = %12
  %20 = load ptr, ptr %2, align 8
  %21 = getelementptr inbounds i8, ptr %0, i64 80
  %22 = load ptr, ptr %21, align 8
  store ptr %20, ptr %22, align 8
  br label %T1_Size_Get_Globals_Funcs.exit.thread

T1_Size_Get_Globals_Funcs.exit.thread:            ; preds = %1, %9, %12, %19, %T1_Size_Get_Globals_Funcs.exit
  %.0 = phi i32 [ %18, %12 ], [ 0, %19 ], [ 0, %T1_Size_Get_Globals_Funcs.exit ], [ 0, %9 ], [ 0, %1 ]
  ret i32 %.0
}